target datalayout = "e-m:e-p270:32:32-p271:32:32-p272:64:64-i64:64-i128:128-f80:128-n8:16:32:64-S128"
target triple = "x86_64-pc-linux-gnu"

%struct.H5P_genclass_t = type { ptr, ptr, i32, i64, i32, i32, i32, i8, i32, ptr, ptr, ptr, ptr, ptr, ptr, ptr }
%struct.H5P_genprop_t = type { ptr, i64, ptr, i32, i8, ptr, ptr, ptr, ptr, ptr, ptr, ptr, ptr, ptr }

@H5P_init_g = external global i8, align 1
@H5_libterm_g = external global i8, align 1
@.str.7 = private unnamed_addr constant [100 x i8] c"generated/home/dtcxzyw/WorkSpace/Projects/compilers/llvm-opt-benchmark/bench/hdf5/hdf5/src/H5Pint.c\00", align 1
@H5E_PLIST_g = external global i64, align 8
@H5E_NOTFOUND_g = external global i64, align 8
@.str.34 = private unnamed_addr constant [33 x i8] c"can't find property in skip list\00", align 1
@.str.48 = private unnamed_addr constant [23 x i8] c"property doesn't exist\00", align 1
@__func__.H5P__get_size_pclass = private unnamed_addr constant [21 x i8] c"H5P__get_size_pclass\00", align 1
@__func__.H5P__find_prop_pclass = private unnamed_addr constant [22 x i8] c"H5P__find_prop_pclass\00", align 1

; Function Attrs: nounwind uwtable
define internal ptr @H5P__find_prop_pclass(ptr noundef %0, ptr noundef %1) #0 {
  %3 = alloca ptr, align 8
  %4 = alloca ptr, align 8
  %5 = alloca ptr, align 8
  %6 = alloca i8, align 1
  store ptr %0, ptr %3, align 8, !tbaa !22
  store ptr %1, ptr %4, align 8, !tbaa !39
  call void @llvm.lifetime.start.p0(i64 8, ptr %5) #8
  store ptr null, ptr %5, align 8, !tbaa !68
  call void @llvm.lifetime.start.p0(i64 1, ptr %6) #8
  store i8 0, ptr %6, align 1, !tbaa !7
  %7 = load i8, ptr @H5P_init_g, align 1, !tbaa !7, !range !9, !noundef !10
  %8 = trunc i8 %7 to i1
  br i1 %8, label %13, label %9

9:                                                ; preds = %2
  %10 = load i8, ptr @H5_libterm_g, align 1, !tbaa !7, !range !9, !noundef !10
  %11 = trunc i8 %10 to i1
  %12 = xor i1 %11, true
  br label %13

13:                                               ; preds = %9, %2
  %14 = phi i1 [ true, %2 ], [ %12, %9 ]
  %15 = xor i1 %14, true
  %16 = xor i1 %15, true
  %17 = zext i1 %16 to i32
  %18 = sext i32 %17 to i64
  %19 = call i64 @llvm.expect.i64(i64 %18, i64 1)
  %20 = icmp ne i64 %19, 0
  br i1 %20, label %21, label %49

21:                                               ; preds = %13
  %22 = load ptr, ptr %3, align 8, !tbaa !22
  %23 = getelementptr inbounds nuw %struct.H5P_genclass_t, ptr %22, i32 0, i32 9
  %24 = load ptr, ptr %23, align 8, !tbaa !52
  %25 = load ptr, ptr %4, align 8, !tbaa !39
  %26 = call ptr @H5SL_search(ptr noundef %24, ptr noundef %25)
  store ptr %26, ptr %5, align 8, !tbaa !68
  %27 = icmp eq ptr null, %26
  br i1 %27, label %28, label %47

28:                                               ; preds = %21
  br label %29

29:                                               ; preds = %28
  br label %30

30:                                               ; preds = %29
  br label %31

31:                                               ; preds = %30
  %32 = load i64, ptr @H5E_PLIST_g, align 8, !tbaa !11
  %33 = load i64, ptr @H5E_NOTFOUND_g, align 8, !tbaa !11
  %34 = call i32 (ptr, ptr, i32, i64, i64, ptr, ...) @H5E_printf_stack(ptr noundef @.str.7, ptr noundef @__func__.H5P__find_prop_pclass, i32 noundef 1481, i64 noundef %32, i64 noundef %33, ptr noundef @.str.34)
  br label %35

35:                                               ; preds = %31
  br label %36

36:                                               ; preds = %35
  store i8 1, ptr %6, align 1, !tbaa !7
  %37 = load i8, ptr %6, align 1, !tbaa !7, !range !9, !noundef !10
  %38 = trunc i8 %37 to i1
  %39 = zext i1 %38 to i8
  store i8 %39, ptr %6, align 1, !tbaa !7
  br label %40

40:                                               ; preds = %36
  br label %41

41:                                               ; preds = %40
  br label %42

42:                                               ; preds = %41
  store ptr null, ptr %5, align 8, !tbaa !68
  br label %48

43:                                               ; No predecessors!
  br label %44

44:                                               ; preds = %43
  br label %45

45:                                               ; preds = %44
  br label %46

46:                                               ; preds = %45
  br label %47

47:                                               ; preds = %46, %21
  br label %48

48:                                               ; preds = %47, %42
  br label %49

49:                                               ; preds = %48, %13
  %50 = load ptr, ptr %5, align 8, !tbaa !68
  call void @llvm.lifetime.end.p0(i64 1, ptr %6) #8
  call void @llvm.lifetime.end.p0(i64 8, ptr %5) #8
  ret ptr %50
}

; Function Attrs: nounwind uwtable
define i32 @H5P__get_size_pclass(ptr noundef %0, ptr noundef %1, ptr noundef %2) #0 {
  %4 = alloca ptr, align 8
  %5 = alloca ptr, align 8
  %6 = alloca ptr, align 8
  %7 = alloca ptr, align 8
  %8 = alloca i32, align 4
  %9 = alloca i8, align 1
  store ptr %0, ptr %4, align 8, !tbaa !22
  store ptr %1, ptr %5, align 8, !tbaa !39
  store ptr %2, ptr %6, align 8, !tbaa !110
  call void @llvm.lifetime.start.p0(i64 8, ptr %7) #8
  call void @llvm.lifetime.start.p0(i64 4, ptr %8) #8
  store i32 0, ptr %8, align 4, !tbaa !3
  call void @llvm.lifetime.start.p0(i64 1, ptr %9) #8
  store i8 0, ptr %9, align 1, !tbaa !7
  %10 = load i8, ptr @H5P_init_g, align 1, !tbaa !7, !range !9, !noundef !10
  %11 = trunc i8 %10 to i1
  br i1 %11, label %16, label %12

12:                                               ; preds = %3
  %13 = load i8, ptr @H5_libterm_g, align 1, !tbaa !7, !range !9, !noundef !10
  %14 = trunc i8 %13 to i1
  %15 = xor i1 %14, true
  br label %16

16:                                               ; preds = %12, %3
  %17 = phi i1 [ true, %3 ], [ %15, %12 ]
  %18 = xor i1 %17, true
  %19 = xor i1 %18, true
  %20 = zext i1 %19 to i32
  %21 = sext i32 %20 to i64
  %22 = call i64 @llvm.expect.i64(i64 %21, i64 1)
  %23 = icmp ne i64 %22, 0
  br i1 %23, label %24, label %54

24:                                               ; preds = %16
  %25 = load ptr, ptr %4, align 8, !tbaa !22
  %26 = load ptr, ptr %5, align 8, !tbaa !39
  %27 = call ptr @H5P__find_prop_pclass(ptr noundef %25, ptr noundef %26)
  store ptr %27, ptr %7, align 8, !tbaa !68
  %28 = icmp eq ptr %27, null
  br i1 %28, label %29, label %48

29:                                               ; preds = %24
  br label %30

30:                                               ; preds = %29
  br label %31

31:                                               ; preds = %30
  br label %32

32:                                               ; preds = %31
  %33 = load i64, ptr @H5E_PLIST_g, align 8, !tbaa !11
  %34 = load i64, ptr @H5E_NOTFOUND_g, align 8, !tbaa !11
  %35 = call i32 (ptr, ptr, i32, i64, i64, ptr, ...) @H5E_printf_stack(ptr noundef @.str.7, ptr noundef @__func__.H5P__get_size_pclass, i32 noundef 3559, i64 noundef %33, i64 noundef %34, ptr noundef @.str.48)
  br label %36

36:                                               ; preds = %32
  br label %37

37:                                               ; preds = %36
  store i8 1, ptr %9, align 1, !tbaa !7
  %38 = load i8, ptr %9, align 1, !tbaa !7, !range !9, !noundef !10
  %39 = trunc i8 %38 to i1
  %40 = zext i1 %39 to i8
  store i8 %40, ptr %9, align 1, !tbaa !7
  br label %41

41:                                               ; preds = %37
  br label %42

42:                                               ; preds = %41
  br label %43

43:                                               ; preds = %42
  store i32 -1, ptr %8, align 4, !tbaa !3
  br label %53

44:                                               ; No predecessors!
  br label %45

45:                                               ; preds = %44
  br label %46

46:                                               ; preds = %45
  br label %47

47:                                               ; preds = %46
  br label %48

48:                                               ; preds = %47, %24
  %49 = load ptr, ptr %7, align 8, !tbaa !68
  %50 = getelementptr inbounds nuw %struct.H5P_genprop_t, ptr %49, i32 0, i32 1
  %51 = load i64, ptr %50, align 8, !tbaa !76
  %52 = load ptr, ptr %6, align 8, !tbaa !110
  store i64 %51, ptr %52, align 8, !tbaa !11
  br label %53

53:                                               ; preds = %48, %43
  br label %54

54:                                               ; preds = %53, %16
  %55 = load i32, ptr %8, align 4, !tbaa !3
  call void @llvm.lifetime.end.p0(i64 1, ptr %9) #8
  call void @llvm.lifetime.end.p0(i64 4, ptr %8) #8
  call void @llvm.lifetime.end.p0(i64 8, ptr %7) #8
  ret i32 %55
}