; Function Attrs: nounwind uwtable
define range(i32 -1, 1) i32 @H5P__get_size_pclass(ptr noundef readonly captures(none) %0, ptr noundef %1, ptr noundef writeonly captures(none) %2) local_unnamed_addr #0 {
  %4 = load i8, ptr @H5P_init_g, align 1, !tbaa !3, !range !7, !noundef !8
  %5 = trunc nuw i8 %4 to i1
  %6 = load i8, ptr @H5_libterm_g, align 1, !range !7
  %7 = trunc nuw i8 %6 to i1
  %8 = xor i1 %7, true
  %9 = select i1 %5, i1 true, i1 %8
  br i1 %9, label %10, label %24, !prof !9

10:                                               ; preds = %3
  %11 = getelementptr inbounds nuw i8, ptr %0, i64 56
  %12 = load ptr, ptr %11, align 8, !tbaa !47
  %13 = tail call ptr @H5SL_search(ptr noundef %12, ptr noundef %1) #14
  %14 = icmp eq ptr %13, null
  br i1 %14, label %15, label %H5P__find_prop_pclass.exit

15:                                               ; preds = %10
  %16 = load i64, ptr @H5E_PLIST_g, align 8, !tbaa !10
  %17 = load i64, ptr @H5E_NOTFOUND_g, align 8, !tbaa !10
  %18 = tail call i32 (ptr, ptr, i32, i64, i64, ptr, ...) @H5E_printf_stack(ptr noundef nonnull @.str.7, ptr noundef nonnull @__func__.H5P__find_prop_pclass, i32 noundef 1481, i64 noundef %16, i64 noundef %17, ptr noundef nonnull @.str.34) #14
  %19 = load i64, ptr @H5E_PLIST_g, align 8, !tbaa !10
  %20 = load i64, ptr @H5E_NOTFOUND_g, align 8, !tbaa !10
  %21 = tail call i32 (ptr, ptr, i32, i64, i64, ptr, ...) @H5E_printf_stack(ptr noundef nonnull @.str.7, ptr noundef nonnull @__func__.H5P__get_size_pclass, i32 noundef 3559, i64 noundef %19, i64 noundef %20, ptr noundef nonnull @.str.48) #14
  br label %24

H5P__find_prop_pclass.exit:                       ; preds = %10
  %22 = getelementptr inbounds nuw i8, ptr %13, i64 8
  %23 = load i64, ptr %22, align 8, !tbaa !73
  store i64 %23, ptr %2, align 8, !tbaa !10
  br label %24

24:                                               ; preds = %15, %H5P__find_prop_pclass.exit, %3
  %.0 = phi i32 [ -1, %15 ], [ 0, %H5P__find_prop_pclass.exit ], [ 0, %3 ]
  ret i32 %.0
}